; Function Attrs: nounwind uwtable
define i32 @Pa_ReadStream(ptr noundef %0, ptr noundef %1, i64 noundef %2) local_unnamed_addr #3 {
  %4 = load i32, ptr @initializationCount_, align 4
  %.not.i = icmp eq i32 %4, 0
  br i1 %.not.i, label %PaUtil_ValidateStreamPointer.exit.thread, label %5

5:                                                ; preds = %3
  %6 = icmp eq ptr %0, null
  br i1 %6, label %PaUtil_ValidateStreamPointer.exit.thread, label %7

7:                                                ; preds = %5
  %8 = load i64, ptr %0, align 8
  %.not3.i = icmp eq i64 %8, 405222981
  br i1 %.not3.i, label %PaUtil_ValidateStreamPointer.exit, label %PaUtil_ValidateStreamPointer.exit.thread

PaUtil_ValidateStreamPointer.exit:                ; preds = %7
  %9 = icmp eq i64 %2, 0
  br i1 %9, label %PaUtil_ValidateStreamPointer.exit.thread, label %10

10:                                               ; preds = %PaUtil_ValidateStreamPointer.exit
  %11 = icmp eq ptr %1, null
  br i1 %11, label %PaUtil_ValidateStreamPointer.exit.thread, label %12

12:                                               ; preds = %10
  %13 = getelementptr inbounds nuw i8, ptr %0, i64 16
  %14 = load ptr, ptr %13, align 8
  %15 = getelementptr inbounds nuw i8, ptr %14, i64 32
  %16 = load ptr, ptr %15, align 8
  %17 = tail call i32 %16(ptr noundef nonnull %0) #12
  %18 = icmp eq i32 %17, 0
  br i1 %18, label %19, label %24

19:                                               ; preds = %12
  %20 = load ptr, ptr %13, align 8
  %21 = getelementptr inbounds nuw i8, ptr %20, i64 64
  %22 = load ptr, ptr %21, align 8
  %23 = tail call i32 %22(ptr noundef nonnull %0, ptr noundef nonnull %1, i64 noundef %2) #12
  br label %PaUtil_ValidateStreamPointer.exit.thread

24:                                               ; preds = %12
  %25 = icmp eq i32 %17, 1
  %spec.store.select = select i1 %25, i32 -9983, i32 %17
  br label %PaUtil_ValidateStreamPointer.exit.thread

PaUtil_ValidateStreamPointer.exit.thread:         ; preds = %7, %5, %3, %10, %PaUtil_ValidateStreamPointer.exit, %19, %24
  %.0 = phi i32 [ %23, %19 ], [ %spec.store.select, %24 ], [ 0, %PaUtil_ValidateStreamPointer.exit ], [ -9972, %10 ], [ -9988, %7 ], [ -9988, %5 ], [ -10000, %3 ]
  ret i32 %.0
}